target datalayout = "e-m:e-p270:32:32-p271:32:32-p272:64:64-i64:64-i128:128-f80:128-n8:16:32:64-S128"
target triple = "x86_64-pc-linux-gnu"

%"class.icu_77::EmojiProps" = type { ptr, ptr, [6 x ptr] }
%struct.UCPTrie = type { ptr, %union.UCPTrieData, i32, i32, i32, i16, i8, i8, i32, i16, i16, i32, i32 }
%union.UCPTrieData = type { ptr }

@_ZZNK6icu_7710EmojiProps21hasBinaryPropertyImplEi9UPropertyE8bitFlags = internal constant [15 x i8] c"\00\01\02\03\04\FF\FF\05\06\FF\FF\FF\FF\FF\06", align 1

; Function Attrs: mustprogress uwtable
define noundef signext i8 @_ZNK6icu_7710EmojiProps21hasBinaryPropertyImplEi9UProperty(ptr noundef nonnull align 8 dereferenceable(64) %0, i32 noundef %1, i32 noundef %2) #3 align 2 {
  %4 = alloca i8, align 1
  %5 = alloca ptr, align 8
  %6 = alloca i32, align 4
  %7 = alloca i32, align 4
  %8 = alloca i32, align 4
  %9 = alloca i32, align 4
  %10 = alloca i8, align 1
  store ptr %0, ptr %5, align 8, !tbaa !3
  store i32 %1, ptr %6, align 4, !tbaa !37
  store i32 %2, ptr %7, align 4, !tbaa !47
  %11 = load ptr, ptr %5, align 8
  %12 = load i32, ptr %7, align 4, !tbaa !47
  %13 = icmp slt i32 %12, 57
  br i1 %13, label %17, label %14

14:                                               ; preds = %3
  %15 = load i32, ptr %7, align 4, !tbaa !47
  %16 = icmp slt i32 71, %15
  br i1 %16, label %17, label %18

17:                                               ; preds = %14, %3
  store i8 0, ptr %4, align 1
  br label %92

18:                                               ; preds = %14
  call void @llvm.lifetime.start.p0(i64 4, ptr %8) #11
  %19 = load i32, ptr %7, align 4, !tbaa !47
  %20 = sub nsw i32 %19, 57
  %21 = sext i32 %20 to i64
  %22 = getelementptr inbounds [15 x i8], ptr @_ZZNK6icu_7710EmojiProps21hasBinaryPropertyImplEi9UPropertyE8bitFlags, i64 0, i64 %21
  %23 = load i8, ptr %22, align 1, !tbaa !27
  %24 = sext i8 %23 to i32
  store i32 %24, ptr %8, align 4, !tbaa !37
  %25 = load i32, ptr %8, align 4, !tbaa !37
  %26 = icmp slt i32 %25, 0
  br i1 %26, label %27, label %28

27:                                               ; preds = %18
  store i8 0, ptr %4, align 1
  store i32 1, ptr %9, align 4
  br label %91

28:                                               ; preds = %18
  call void @llvm.lifetime.start.p0(i64 1, ptr %10) #11
  %29 = getelementptr inbounds nuw %"class.icu_77::EmojiProps", ptr %11, i32 0, i32 1
  %30 = load ptr, ptr %29, align 8, !tbaa !12
  %31 = getelementptr inbounds nuw %struct.UCPTrie, ptr %30, i32 0, i32 1
  %32 = load ptr, ptr %31, align 8, !tbaa !27
  %33 = load i32, ptr %6, align 4, !tbaa !37
  %34 = icmp ule i32 %33, 65535
  br i1 %34, label %35, label %49

35:                                               ; preds = %28
  %36 = getelementptr inbounds nuw %"class.icu_77::EmojiProps", ptr %11, i32 0, i32 1
  %37 = load ptr, ptr %36, align 8, !tbaa !12
  %38 = getelementptr inbounds nuw %struct.UCPTrie, ptr %37, i32 0, i32 0
  %39 = load ptr, ptr %38, align 8, !tbaa !49
  %40 = load i32, ptr %6, align 4, !tbaa !37
  %41 = ashr i32 %40, 6
  %42 = sext i32 %41 to i64
  %43 = getelementptr inbounds i16, ptr %39, i64 %42
  %44 = load i16, ptr %43, align 2, !tbaa !52
  %45 = zext i16 %44 to i32
  %46 = load i32, ptr %6, align 4, !tbaa !37
  %47 = and i32 %46, 63
  %48 = add nsw i32 %45, %47
  br label %80

49:                                               ; preds = %28
  %50 = load i32, ptr %6, align 4, !tbaa !37
  %51 = icmp ule i32 %50, 1114111
  br i1 %51, label %52, label %72

52:                                               ; preds = %49
  %53 = load i32, ptr %6, align 4, !tbaa !37
  %54 = getelementptr inbounds nuw %"class.icu_77::EmojiProps", ptr %11, i32 0, i32 1
  %55 = load ptr, ptr %54, align 8, !tbaa !12
  %56 = getelementptr inbounds nuw %struct.UCPTrie, ptr %55, i32 0, i32 4
  %57 = load i32, ptr %56, align 8, !tbaa !53
  %58 = icmp sge i32 %53, %57
  br i1 %58, label %59, label %65

59:                                               ; preds = %52
  %60 = getelementptr inbounds nuw %"class.icu_77::EmojiProps", ptr %11, i32 0, i32 1
  %61 = load ptr, ptr %60, align 8, !tbaa !12
  %62 = getelementptr inbounds nuw %struct.UCPTrie, ptr %61, i32 0, i32 3
  %63 = load i32, ptr %62, align 4, !tbaa !54
  %64 = sub nsw i32 %63, 2
  br label %70

65:                                               ; preds = %52
  %66 = getelementptr inbounds nuw %"class.icu_77::EmojiProps", ptr %11, i32 0, i32 1
  %67 = load ptr, ptr %66, align 8, !tbaa !12
  %68 = load i32, ptr %6, align 4, !tbaa !37
  %69 = call i32 @ucptrie_internalSmallIndex_77(ptr noundef %67, i32 noundef %68)
  br label %70

70:                                               ; preds = %65, %59
  %71 = phi i32 [ %64, %59 ], [ %69, %65 ]
  br label %78

72:                                               ; preds = %49
  %73 = getelementptr inbounds nuw %"class.icu_77::EmojiProps", ptr %11, i32 0, i32 1
  %74 = load ptr, ptr %73, align 8, !tbaa !12
  %75 = getelementptr inbounds nuw %struct.UCPTrie, ptr %74, i32 0, i32 3
  %76 = load i32, ptr %75, align 4, !tbaa !54
  %77 = sub nsw i32 %76, 1
  br label %78

78:                                               ; preds = %72, %70
  %79 = phi i32 [ %71, %70 ], [ %77, %72 ]
  br label %80

80:                                               ; preds = %78, %35
  %81 = phi i32 [ %48, %35 ], [ %79, %78 ]
  %82 = sext i32 %81 to i64
  %83 = getelementptr inbounds i8, ptr %32, i64 %82
  %84 = load i8, ptr %83, align 1, !tbaa !27
  store i8 %84, ptr %10, align 1, !tbaa !27
  %85 = load i8, ptr %10, align 1, !tbaa !27
  %86 = zext i8 %85 to i32
  %87 = load i32, ptr %8, align 4, !tbaa !37
  %88 = ashr i32 %86, %87
  %89 = and i32 %88, 1
  %90 = trunc i32 %89 to i8
  store i8 %90, ptr %4, align 1
  store i32 1, ptr %9, align 4
  call void @llvm.lifetime.end.p0(i64 1, ptr %10) #11
  br label %91

91:                                               ; preds = %80, %27
  call void @llvm.lifetime.end.p0(i64 4, ptr %8) #11
  br label %92

92:                                               ; preds = %91, %17
  %93 = load i8, ptr %4, align 1
  ret i8 %93
}

; Function Attrs: inlinehint mustprogress nounwind uwtable
define internal noundef signext i8 @_ZL9U_SUCCESS10UErrorCode(i32 noundef %0) #4 {
  %2 = alloca i32, align 4
  store i32 %0, ptr %2, align 4, !tbaa !14
  %3 = load i32, ptr %2, align 4, !tbaa !14
  %4 = icmp sle i32 %3, 0
  %5 = zext i1 %4 to i8
  ret i8 %5
}

; Function Attrs: mustprogress uwtable
define noundef signext i8 @_ZN6icu_7710EmojiProps17hasBinaryPropertyEi9UProperty(i32 noundef %0, i32 noundef %1) #3 align 2 {
  %3 = alloca i32, align 4
  %4 = alloca i32, align 4
  %5 = alloca i32, align 4
  %6 = alloca ptr, align 8
  store i32 %0, ptr %3, align 4, !tbaa !37
  store i32 %1, ptr %4, align 4, !tbaa !47
  call void @llvm.lifetime.start.p0(i64 4, ptr %5) #11
  store i32 0, ptr %5, align 4, !tbaa !14
  call void @llvm.lifetime.start.p0(i64 8, ptr %6) #11
  %7 = call noundef ptr @_ZN6icu_7710EmojiProps12getSingletonER10UErrorCode(ptr noundef nonnull align 4 dereferenceable(4) %5)
  store ptr %7, ptr %6, align 8, !tbaa !3
  %8 = load i32, ptr %5, align 4, !tbaa !14
  %9 = call noundef signext i8 @_ZL9U_SUCCESS10UErrorCode(i32 noundef %8)
  %10 = icmp ne i8 %9, 0
  br i1 %10, label %11, label %17

11:                                               ; preds = %2
  %12 = load ptr, ptr %6, align 8, !tbaa !3
  %13 = load i32, ptr %3, align 4, !tbaa !37
  %14 = load i32, ptr %4, align 4, !tbaa !47
  %15 = call noundef signext i8 @_ZNK6icu_7710EmojiProps21hasBinaryPropertyImplEi9UProperty(ptr noundef nonnull align 8 dereferenceable(64) %12, i32 noundef %13, i32 noundef %14)
  %16 = icmp ne i8 %15, 0
  br label %17

17:                                               ; preds = %11, %2
  %18 = phi i1 [ false, %2 ], [ %16, %11 ]
  %19 = zext i1 %18 to i8
  call void @llvm.lifetime.end.p0(i64 8, ptr %6) #11
  call void @llvm.lifetime.end.p0(i64 4, ptr %5) #11
  ret i8 %19
}