; Function Attrs: mustprogress uwtable
define noundef signext range(i8 0, 2) i8 @_ZN6icu_7710EmojiProps17hasBinaryPropertyEi9UProperty(i32 noundef %0, i32 noundef %1) local_unnamed_addr #4 align 2 {
  %3 = alloca i32, align 4
  call void @llvm.lifetime.start.p0(i64 4, ptr nonnull %3) #10
  store i32 0, ptr %3, align 4, !tbaa !11
  %4 = call noundef ptr @_ZN6icu_7710EmojiProps12getSingletonER10UErrorCode(ptr noundef nonnull align 4 dereferenceable(4) %3)
  %5 = load i32, ptr %3, align 4, !tbaa !11
  %6 = icmp sgt i32 %5, 0
  %7 = add i32 %1, -72
  %or.cond.i = icmp ult i32 %7, -15
  %or.cond = or i1 %or.cond.i, %6
  br i1 %or.cond, label %_ZNK6icu_7710EmojiProps21hasBinaryPropertyImplEi9UProperty.exit, label %8

8:                                                ; preds = %2
  %9 = add nsw i32 %1, -57
  %10 = zext nneg i32 %9 to i64
  %11 = getelementptr inbounds nuw [15 x i8], ptr @_ZZNK6icu_7710EmojiProps21hasBinaryPropertyImplEi9UPropertyE8bitFlags, i64 0, i64 %10
  %12 = load i8, ptr %11, align 1, !tbaa !33
  %13 = shl nuw nsw i64 1, %10
  %14 = and i64 %13, 15968
  %.not.i = icmp eq i64 %14, 0
  br i1 %.not.i, label %15, label %_ZNK6icu_7710EmojiProps21hasBinaryPropertyImplEi9UProperty.exit

15:                                               ; preds = %8
  %16 = getelementptr inbounds nuw i8, ptr %4, i64 8
  %17 = load ptr, ptr %16, align 8, !tbaa !10
  %18 = getelementptr inbounds nuw i8, ptr %17, i64 8
  %19 = load ptr, ptr %18, align 8, !tbaa !33
  %20 = icmp ult i32 %0, 65536
  br i1 %20, label %21, label %30

21:                                               ; preds = %15
  %22 = load ptr, ptr %17, align 8, !tbaa !34
  %23 = lshr i32 %0, 6
  %24 = zext nneg i32 %23 to i64
  %25 = getelementptr inbounds nuw i16, ptr %22, i64 %24
  %26 = load i16, ptr %25, align 2, !tbaa !37
  %27 = zext i16 %26 to i32
  %28 = and i32 %0, 63
  %29 = add nuw nsw i32 %28, %27
  br label %45

30:                                               ; preds = %15
  %31 = icmp ult i32 %0, 1114112
  br i1 %31, label %32, label %41

32:                                               ; preds = %30
  %33 = getelementptr inbounds nuw i8, ptr %17, i64 24
  %34 = load i32, ptr %33, align 8, !tbaa !38
  %.not18.i = icmp slt i32 %0, %34
  br i1 %.not18.i, label %39, label %35

35:                                               ; preds = %32
  %36 = getelementptr inbounds nuw i8, ptr %17, i64 20
  %37 = load i32, ptr %36, align 4, !tbaa !39
  %38 = add nsw i32 %37, -2
  br label %45

39:                                               ; preds = %32
  %40 = call i32 @ucptrie_internalSmallIndex_77(ptr noundef nonnull %17, i32 noundef %0)
  br label %45

41:                                               ; preds = %30
  %42 = getelementptr inbounds nuw i8, ptr %17, i64 20
  %43 = load i32, ptr %42, align 4, !tbaa !39
  %44 = add nsw i32 %43, -1
  br label %45

45:                                               ; preds = %41, %39, %35, %21
  %46 = phi i32 [ %29, %21 ], [ %44, %41 ], [ %38, %35 ], [ %40, %39 ]
  %47 = sext i32 %46 to i64
  %48 = getelementptr inbounds i8, ptr %19, i64 %47
  %49 = load i8, ptr %48, align 1, !tbaa !33
  %50 = zext i8 %49 to i32
  %51 = zext nneg i8 %12 to i32
  %52 = lshr i32 %50, %51
  %53 = trunc nuw i32 %52 to i8
  %54 = and i8 %53, 1
  br label %_ZNK6icu_7710EmojiProps21hasBinaryPropertyImplEi9UProperty.exit

_ZNK6icu_7710EmojiProps21hasBinaryPropertyImplEi9UProperty.exit: ; preds = %45, %8, %2
  %55 = phi i8 [ 0, %2 ], [ %54, %45 ], [ 0, %8 ]
  call void @llvm.lifetime.end.p0(i64 4, ptr nonnull %3) #10
  ret i8 %55
}